target datalayout = "e-m:e-p270:32:32-p271:32:32-p272:64:64-i64:64-i128:128-f80:128-n8:16:32:64-S128"
target triple = "x86_64-pc-linux-gnu"

%class.CorpusProperties = type <{ i32, i32, i32, %struct.min_max, %struct.min_max, i32, i32, i32, i32, i32, %"class.boost::random::mersenne_twister_engine", i32, [4 x i8] }>
%struct.min_max = type { i32, i32 }
%"class.boost::random::mersenne_twister_engine" = type { [624 x i32], i64 }

; Function Attrs: mustprogress nounwind uwtable
define linkonce_odr hidden void @_ZN5boost6random23mersenne_twister_engineIjLm32ELm624ELm397ELm31ELj2567483615ELm11ELj4294967295ELm7ELj2636928640ELm15ELj4022730752ELm18ELj1812433253EE15normalize_stateEv(ptr noundef nonnull align 8 dereferenceable(2504) %0) #1 comdat align 2 {
  %2 = alloca ptr, align 8
  %3 = alloca i32, align 4
  %4 = alloca i32, align 4
  %5 = alloca i32, align 4
  %6 = alloca i64, align 8
  %7 = alloca i32, align 4
  store ptr %0, ptr %2, align 8
  %8 = load ptr, ptr %2, align 8
  call void @llvm.lifetime.start.p0(i64 4, ptr %3) #4
  store i32 -2147483648, ptr %3, align 4
  call void @llvm.lifetime.start.p0(i64 4, ptr %4) #4
  store i32 2147483647, ptr %4, align 4
  call void @llvm.lifetime.start.p0(i64 4, ptr %5) #4
  %9 = getelementptr inbounds nuw %"class.boost::random::mersenne_twister_engine", ptr %8, i32 0, i32 0
  %10 = getelementptr inbounds nuw [624 x i32], ptr %9, i64 0, i64 396
  %11 = load i32, ptr %10, align 8
  %12 = getelementptr inbounds nuw %"class.boost::random::mersenne_twister_engine", ptr %8, i32 0, i32 0
  %13 = getelementptr inbounds nuw [624 x i32], ptr %12, i64 0, i64 623
  %14 = load i32, ptr %13, align 4
  %15 = xor i32 %11, %14
  store i32 %15, ptr %5, align 4
  %16 = load i32, ptr %5, align 4
  %17 = and i32 %16, -2147483648
  %18 = icmp ne i32 %17, 0
  br i1 %18, label %19, label %24

19:                                               ; preds = %1
  %20 = load i32, ptr %5, align 4
  %21 = xor i32 %20, -1727483681
  %22 = shl i32 %21, 1
  %23 = or i32 %22, 1
  store i32 %23, ptr %5, align 4
  br label %27

24:                                               ; preds = %1
  %25 = load i32, ptr %5, align 4
  %26 = shl i32 %25, 1
  store i32 %26, ptr %5, align 4
  br label %27

27:                                               ; preds = %24, %19
  %28 = getelementptr inbounds nuw %"class.boost::random::mersenne_twister_engine", ptr %8, i32 0, i32 0
  %29 = getelementptr inbounds [624 x i32], ptr %28, i64 0, i64 0
  %30 = load i32, ptr %29, align 8
  %31 = and i32 %30, -2147483648
  %32 = load i32, ptr %5, align 4
  %33 = and i32 %32, 2147483647
  %34 = or i32 %31, %33
  %35 = getelementptr inbounds nuw %"class.boost::random::mersenne_twister_engine", ptr %8, i32 0, i32 0
  %36 = getelementptr inbounds [624 x i32], ptr %35, i64 0, i64 0
  store i32 %34, ptr %36, align 8
  call void @llvm.lifetime.start.p0(i64 8, ptr %6) #4
  store i64 0, ptr %6, align 8
  br label %37

37:                                               ; preds = %49, %27
  %38 = load i64, ptr %6, align 8
  %39 = icmp ult i64 %38, 624
  br i1 %39, label %41, label %40

40:                                               ; preds = %37
  store i32 2, ptr %7, align 4
  br label %52

41:                                               ; preds = %37
  %42 = getelementptr inbounds nuw %"class.boost::random::mersenne_twister_engine", ptr %8, i32 0, i32 0
  %43 = load i64, ptr %6, align 8
  %44 = getelementptr inbounds nuw [624 x i32], ptr %42, i64 0, i64 %43
  %45 = load i32, ptr %44, align 4
  %46 = icmp ne i32 %45, 0
  br i1 %46, label %47, label %48

47:                                               ; preds = %41
  store i32 1, ptr %7, align 4
  br label %52

48:                                               ; preds = %41
  br label %49

49:                                               ; preds = %48
  %50 = load i64, ptr %6, align 8
  %51 = add i64 %50, 1
  store i64 %51, ptr %6, align 8
  br label %37, !llvm.loop !7

52:                                               ; preds = %47, %40
  call void @llvm.lifetime.end.p0(i64 8, ptr %6) #4
  %53 = load i32, ptr %7, align 4
  switch i32 %53, label %57 [
    i32 2, label %54
  ]

54:                                               ; preds = %52
  %55 = getelementptr inbounds nuw %"class.boost::random::mersenne_twister_engine", ptr %8, i32 0, i32 0
  %56 = getelementptr inbounds [624 x i32], ptr %55, i64 0, i64 0
  store i32 -2147483648, ptr %56, align 8
  store i32 0, ptr %7, align 4
  br label %57

57:                                               ; preds = %54, %52
  call void @llvm.lifetime.end.p0(i64 4, ptr %5) #4
  call void @llvm.lifetime.end.p0(i64 4, ptr %4) #4
  call void @llvm.lifetime.end.p0(i64 4, ptr %3) #4
  %58 = load i32, ptr %7, align 4
  switch i32 %58, label %60 [
    i32 0, label %59
    i32 1, label %59
  ]

59:                                               ; preds = %57, %57
  ret void

60:                                               ; preds = %57
  unreachable
}

; Function Attrs: mustprogress nounwind uwtable
define linkonce_odr hidden noundef i32 @_ZN5boost6random23mersenne_twister_engineIjLm32ELm624ELm397ELm31ELj2567483615ELm11ELj4294967295ELm7ELj2636928640ELm15ELj4022730752ELm18ELj1812433253EE3maxEv() #1 comdat align 2 {
  ret i32 -1
}

; Function Attrs: mustprogress uwtable
define linkonce_odr hidden void @_ZN5boost6random23mersenne_twister_engineIjLm32ELm624ELm397ELm31ELj2567483615ELm11ELj4294967295ELm7ELj2636928640ELm15ELj4022730752ELm18ELj1812433253EE4seedERKj(ptr noundef nonnull align 8 dereferenceable(2504) %0, ptr noundef nonnull align 4 dereferenceable(4) %1) #0 comdat align 2 {
  %3 = alloca ptr, align 8
  %4 = alloca ptr, align 8
  %5 = alloca i32, align 4
  store ptr %0, ptr %3, align 8
  store ptr %1, ptr %4, align 8
  %6 = load ptr, ptr %3, align 8
  call void @llvm.lifetime.start.p0(i64 4, ptr %5) #4
  %7 = call noundef i32 @_ZN5boost6random23mersenne_twister_engineIjLm32ELm624ELm397ELm31ELj2567483615ELm11ELj4294967295ELm7ELj2636928640ELm15ELj4022730752ELm18ELj1812433253EE3maxEv()
  store i32 %7, ptr %5, align 4
  %8 = load ptr, ptr %4, align 8
  %9 = load i32, ptr %8, align 4
  %10 = load i32, ptr %5, align 4
  %11 = and i32 %9, %10
  %12 = getelementptr inbounds nuw %"class.boost::random::mersenne_twister_engine", ptr %6, i32 0, i32 0
  %13 = getelementptr inbounds [624 x i32], ptr %12, i64 0, i64 0
  store i32 %11, ptr %13, align 8
  %14 = getelementptr inbounds nuw %"class.boost::random::mersenne_twister_engine", ptr %6, i32 0, i32 1
  store i64 1, ptr %14, align 8
  br label %15

15:                                               ; preds = %47, %2
  %16 = getelementptr inbounds nuw %"class.boost::random::mersenne_twister_engine", ptr %6, i32 0, i32 1
  %17 = load i64, ptr %16, align 8
  %18 = icmp ult i64 %17, 624
  br i1 %18, label %19, label %51

19:                                               ; preds = %15
  %20 = getelementptr inbounds nuw %"class.boost::random::mersenne_twister_engine", ptr %6, i32 0, i32 0
  %21 = getelementptr inbounds nuw %"class.boost::random::mersenne_twister_engine", ptr %6, i32 0, i32 1
  %22 = load i64, ptr %21, align 8
  %23 = sub i64 %22, 1
  %24 = getelementptr inbounds nuw [624 x i32], ptr %20, i64 0, i64 %23
  %25 = load i32, ptr %24, align 4
  %26 = getelementptr inbounds nuw %"class.boost::random::mersenne_twister_engine", ptr %6, i32 0, i32 0
  %27 = getelementptr inbounds nuw %"class.boost::random::mersenne_twister_engine", ptr %6, i32 0, i32 1
  %28 = load i64, ptr %27, align 8
  %29 = sub i64 %28, 1
  %30 = getelementptr inbounds nuw [624 x i32], ptr %26, i64 0, i64 %29
  %31 = load i32, ptr %30, align 4
  %32 = lshr i32 %31, 30
  %33 = xor i32 %25, %32
  %34 = mul i32 1812433253, %33
  %35 = zext i32 %34 to i64
  %36 = getelementptr inbounds nuw %"class.boost::random::mersenne_twister_engine", ptr %6, i32 0, i32 1
  %37 = load i64, ptr %36, align 8
  %38 = add i64 %35, %37
  %39 = load i32, ptr %5, align 4
  %40 = zext i32 %39 to i64
  %41 = and i64 %38, %40
  %42 = trunc i64 %41 to i32
  %43 = getelementptr inbounds nuw %"class.boost::random::mersenne_twister_engine", ptr %6, i32 0, i32 0
  %44 = getelementptr inbounds nuw %"class.boost::random::mersenne_twister_engine", ptr %6, i32 0, i32 1
  %45 = load i64, ptr %44, align 8
  %46 = getelementptr inbounds nuw [624 x i32], ptr %43, i64 0, i64 %45
  store i32 %42, ptr %46, align 4
  br label %47

47:                                               ; preds = %19
  %48 = getelementptr inbounds nuw %"class.boost::random::mersenne_twister_engine", ptr %6, i32 0, i32 1
  %49 = load i64, ptr %48, align 8
  %50 = add i64 %49, 1
  store i64 %50, ptr %48, align 8
  br label %15, !llvm.loop !5

51:                                               ; preds = %15
  call void @_ZN5boost6random23mersenne_twister_engineIjLm32ELm624ELm397ELm31ELj2567483615ELm11ELj4294967295ELm7ELj2636928640ELm15ELj4022730752ELm18ELj1812433253EE15normalize_stateEv(ptr noundef nonnull align 8 dereferenceable(2504) %6)
  call void @llvm.lifetime.end.p0(i64 4, ptr %5) #4
  ret void
}

; Function Attrs: mustprogress uwtable
define hidden void @_ZN16CorpusProperties4seedEj(ptr noundef nonnull align 8 dereferenceable(2556) %0, i32 noundef %1) #0 align 2 {
  %3 = alloca ptr, align 8
  %4 = alloca i32, align 4
  store ptr %0, ptr %3, align 8
  store i32 %1, ptr %4, align 4
  %5 = load ptr, ptr %3, align 8
  %6 = load i32, ptr %4, align 4
  %7 = getelementptr inbounds nuw %class.CorpusProperties, ptr %5, i32 0, i32 11
  store i32 %6, ptr %7, align 8
  %8 = getelementptr inbounds nuw %class.CorpusProperties, ptr %5, i32 0, i32 10
  call void @_ZN5boost6random23mersenne_twister_engineIjLm32ELm624ELm397ELm31ELj2567483615ELm11ELj4294967295ELm7ELj2636928640ELm15ELj4022730752ELm18ELj1812433253EE4seedERKj(ptr noundef nonnull align 8 dereferenceable(2504) %8, ptr noundef nonnull align 4 dereferenceable(4) %4)
  ret void
}