; Function Attrs: mustprogress nofree norecurse nosync nounwind memory(argmem: readwrite) uwtable
define hidden void @_ZN16CorpusProperties4seedEj(ptr noundef nonnull align 8 captures(none) dereferenceable(2556) initializes((48, 52), (2544, 2556)) %0, i32 noundef %1) local_unnamed_addr #0 align 2 {
  %3 = getelementptr inbounds nuw i8, ptr %0, i64 2552
  store i32 %1, ptr %3, align 8
  %4 = getelementptr inbounds nuw i8, ptr %0, i64 48
  store i32 %1, ptr %4, align 8
  %5 = getelementptr inbounds nuw i8, ptr %0, i64 2544
  store i64 1, ptr %5, align 8
  br label %6

6:                                                ; preds = %6, %2
  %storemerge3.i = phi i64 [ 1, %2 ], [ %17, %6 ]
  %7 = add nsw i64 %storemerge3.i, -1
  %8 = getelementptr inbounds nuw [624 x i32], ptr %4, i64 0, i64 %7
  %9 = load i32, ptr %8, align 4
  %10 = lshr i32 %9, 30
  %11 = xor i32 %10, %9
  %12 = mul i32 %11, 1812433253
  %13 = trunc nuw i64 %storemerge3.i to i32
  %14 = add i32 %12, %13
  %15 = getelementptr inbounds nuw [624 x i32], ptr %4, i64 0, i64 %storemerge3.i
  store i32 %14, ptr %15, align 4
  %16 = load i64, ptr %5, align 8
  %17 = add i64 %16, 1
  store i64 %17, ptr %5, align 8
  %18 = icmp ult i64 %17, 624
  br i1 %18, label %6, label %19, !llvm.loop !5

19:                                               ; preds = %6
  %20 = getelementptr inbounds nuw i8, ptr %0, i64 1632
  %21 = load i32, ptr %20, align 8
  %22 = getelementptr inbounds nuw i8, ptr %0, i64 2540
  %23 = load i32, ptr %22, align 4
  %24 = xor i32 %23, %21
  %25 = shl i32 %24, 1
  %26 = xor i32 %25, 839999935
  %.not11.i.i = icmp slt i32 %24, 0
  %.09.i.i = select i1 %.not11.i.i, i32 %26, i32 %25
  %27 = load i32, ptr %4, align 8
  %28 = and i32 %27, -2147483648
  %29 = and i32 %.09.i.i, 2147483647
  %30 = or disjoint i32 %29, %28
  store i32 %30, ptr %4, align 8
  br label %33

31:                                               ; preds = %33
  %32 = add nuw nsw i64 %.0812.i.i, 1
  %exitcond.i.i = icmp eq i64 %32, 624
  br i1 %exitcond.i.i, label %.critedge.i.i, label %33, !llvm.loop !7

33:                                               ; preds = %31, %19
  %.0812.i.i = phi i64 [ 0, %19 ], [ %32, %31 ]
  %34 = getelementptr inbounds nuw [624 x i32], ptr %4, i64 0, i64 %.0812.i.i
  %35 = load i32, ptr %34, align 4
  %.not10.i.i = icmp eq i32 %35, 0
  br i1 %.not10.i.i, label %31, label %_ZN5boost6random23mersenne_twister_engineIjLm32ELm624ELm397ELm31ELj2567483615ELm11ELj4294967295ELm7ELj2636928640ELm15ELj4022730752ELm18ELj1812433253EE4seedERKj.exit

.critedge.i.i:                                    ; preds = %31
  store i32 -2147483648, ptr %4, align 8
  br label %_ZN5boost6random23mersenne_twister_engineIjLm32ELm624ELm397ELm31ELj2567483615ELm11ELj4294967295ELm7ELj2636928640ELm15ELj4022730752ELm18ELj1812433253EE4seedERKj.exit

_ZN5boost6random23mersenne_twister_engineIjLm32ELm624ELm397ELm31ELj2567483615ELm11ELj4294967295ELm7ELj2636928640ELm15ELj4022730752ELm18ELj1812433253EE4seedERKj.exit: ; preds = %33, %.critedge.i.i
  ret void
}